target datalayout = "e-m:e-p270:32:32-p271:32:32-p272:64:64-i64:64-i128:128-f80:128-n8:16:32:64-S128"
target triple = "x86_64-pc-linux-gnu"

%struct.SDL_Mouse = type { ptr, ptr, ptr, ptr, ptr, ptr, ptr, ptr, ptr, ptr, ptr, ptr, ptr, ptr, i8, float, float, ptr, float, float, float, float, float, float, float, float, double, double, i8, i8, i8, i8, i8, i8, i8, i8, i64, i8, float, i8, float, i8, i32, i32, i8, i8, i8, i8, i8, i8, i8, i8, i8, ptr, i32, ptr, ptr, ptr, ptr, i8, ptr }
%struct.SDL_Rect = type { i32, i32, i32, i32 }
%struct.SDL_Window = type { i32, ptr, ptr, i32, i32, i32, i32, i32, i32, i32, i32, float, float, i32, i32, i64, i64, float, i8, i8, i32, i32, %struct.SDL_Rect, %struct.SDL_Rect, %struct.SDL_Rect, i8, i8, i8, %struct.SDL_DisplayMode, %struct.SDL_DisplayMode, %struct.SDL_HDROutputProperties, float, ptr, i8, i8, i8, i8, i8, i8, i8, i8, i8, i32, i32, i32, i32, %struct.SDL_Rect, i32, i8, %struct.SDL_Rect, i32, %struct.SDL_Rect, ptr, ptr, i32, float, i32, i32, ptr, ptr, ptr, ptr, ptr, ptr, ptr, ptr, ptr }
%struct.SDL_DisplayMode = type { i32, i32, i32, i32, float, float, i32, i32, ptr }
%struct.SDL_HDROutputProperties = type { float, float }

@SDL_mouse = internal global %struct.SDL_Mouse zeroinitializer, align 8

; Function Attrs: nounwind uwtable
define hidden void @SDL_RedrawCursor() #0 {
  %1 = alloca ptr, align 8
  %2 = alloca ptr, align 8
  call void @llvm.lifetime.start.p0(i64 8, ptr %1) #7
  %3 = call ptr @SDL_GetMouse()
  store ptr %3, ptr %1, align 8
  call void @llvm.lifetime.start.p0(i64 8, ptr %2) #7
  %4 = load ptr, ptr %1, align 8
  %5 = getelementptr inbounds nuw %struct.SDL_Mouse, ptr %4, i32 0, i32 17
  %6 = load ptr, ptr %5, align 8
  %7 = icmp ne ptr %6, null
  br i1 %7, label %8, label %12

8:                                                ; preds = %0
  %9 = load ptr, ptr %1, align 8
  %10 = getelementptr inbounds nuw %struct.SDL_Mouse, ptr %9, i32 0, i32 58
  %11 = load ptr, ptr %10, align 8
  store ptr %11, ptr %2, align 8
  br label %16

12:                                               ; preds = %0
  %13 = load ptr, ptr %1, align 8
  %14 = getelementptr inbounds nuw %struct.SDL_Mouse, ptr %13, i32 0, i32 57
  %15 = load ptr, ptr %14, align 8
  store ptr %15, ptr %2, align 8
  br label %16

16:                                               ; preds = %12, %8
  %17 = load ptr, ptr %1, align 8
  %18 = getelementptr inbounds nuw %struct.SDL_Mouse, ptr %17, i32 0, i32 17
  %19 = load ptr, ptr %18, align 8
  %20 = icmp ne ptr %19, null
  br i1 %20, label %21, label %37

21:                                               ; preds = %16
  %22 = load ptr, ptr %1, align 8
  %23 = getelementptr inbounds nuw %struct.SDL_Mouse, ptr %22, i32 0, i32 59
  %24 = load i8, ptr %23, align 8, !range !3, !noundef !4
  %25 = trunc i8 %24 to i1
  br i1 %25, label %26, label %36

26:                                               ; preds = %21
  %27 = load ptr, ptr %1, align 8
  %28 = getelementptr inbounds nuw %struct.SDL_Mouse, ptr %27, i32 0, i32 29
  %29 = load i8, ptr %28, align 1, !range !3, !noundef !4
  %30 = trunc i8 %29 to i1
  br i1 %30, label %31, label %37

31:                                               ; preds = %26
  %32 = load ptr, ptr %1, align 8
  %33 = getelementptr inbounds nuw %struct.SDL_Mouse, ptr %32, i32 0, i32 31
  %34 = load i8, ptr %33, align 1, !range !3, !noundef !4
  %35 = trunc i8 %34 to i1
  br i1 %35, label %36, label %37

36:                                               ; preds = %31, %21
  store ptr null, ptr %2, align 8
  br label %37

37:                                               ; preds = %36, %31, %26, %16
  %38 = load ptr, ptr %1, align 8
  %39 = getelementptr inbounds nuw %struct.SDL_Mouse, ptr %38, i32 0, i32 2
  %40 = load ptr, ptr %39, align 8
  %41 = icmp ne ptr %40, null
  br i1 %41, label %42, label %48

42:                                               ; preds = %37
  %43 = load ptr, ptr %1, align 8
  %44 = getelementptr inbounds nuw %struct.SDL_Mouse, ptr %43, i32 0, i32 2
  %45 = load ptr, ptr %44, align 8
  %46 = load ptr, ptr %2, align 8
  %47 = call zeroext i1 %45(ptr noundef %46)
  br label %48

48:                                               ; preds = %42, %37
  call void @llvm.lifetime.end.p0(i64 8, ptr %2) #7
  call void @llvm.lifetime.end.p0(i64 8, ptr %1) #7
  ret void
}

; Function Attrs: nounwind uwtable
define hidden void @SDL_SetMouseFocus(ptr noundef %0) #0 {
  %2 = alloca ptr, align 8
  %3 = alloca ptr, align 8
  %4 = alloca i32, align 4
  store ptr %0, ptr %2, align 8
  call void @llvm.lifetime.start.p0(i64 8, ptr %3) #7
  %5 = call ptr @SDL_GetMouse()
  store ptr %5, ptr %3, align 8
  %6 = load ptr, ptr %3, align 8
  %7 = getelementptr inbounds nuw %struct.SDL_Mouse, ptr %6, i32 0, i32 17
  %8 = load ptr, ptr %7, align 8
  %9 = load ptr, ptr %2, align 8
  %10 = icmp eq ptr %8, %9
  br i1 %10, label %11, label %12

11:                                               ; preds = %1
  store i32 1, ptr %4, align 4
  br label %38

12:                                               ; preds = %1
  %13 = load ptr, ptr %3, align 8
  %14 = getelementptr inbounds nuw %struct.SDL_Mouse, ptr %13, i32 0, i32 17
  %15 = load ptr, ptr %14, align 8
  %16 = icmp ne ptr %15, null
  br i1 %16, label %17, label %22

17:                                               ; preds = %12
  %18 = load ptr, ptr %3, align 8
  %19 = getelementptr inbounds nuw %struct.SDL_Mouse, ptr %18, i32 0, i32 17
  %20 = load ptr, ptr %19, align 8
  %21 = call zeroext i1 @SDL_SendWindowEvent(ptr noundef %20, i32 noundef 525, i32 noundef 0, i32 noundef 0)
  br label %22

22:                                               ; preds = %17, %12
  %23 = load ptr, ptr %2, align 8
  %24 = load ptr, ptr %3, align 8
  %25 = getelementptr inbounds nuw %struct.SDL_Mouse, ptr %24, i32 0, i32 17
  store ptr %23, ptr %25, align 8
  %26 = load ptr, ptr %3, align 8
  %27 = getelementptr inbounds nuw %struct.SDL_Mouse, ptr %26, i32 0, i32 28
  store i8 0, ptr %27, align 8
  %28 = load ptr, ptr %3, align 8
  %29 = getelementptr inbounds nuw %struct.SDL_Mouse, ptr %28, i32 0, i32 17
  %30 = load ptr, ptr %29, align 8
  %31 = icmp ne ptr %30, null
  br i1 %31, label %32, label %37

32:                                               ; preds = %22
  %33 = load ptr, ptr %3, align 8
  %34 = getelementptr inbounds nuw %struct.SDL_Mouse, ptr %33, i32 0, i32 17
  %35 = load ptr, ptr %34, align 8
  %36 = call zeroext i1 @SDL_SendWindowEvent(ptr noundef %35, i32 noundef 524, i32 noundef 0, i32 noundef 0)
  br label %37

37:                                               ; preds = %32, %22
  call void @SDL_RedrawCursor()
  store i32 0, ptr %4, align 4
  br label %38

38:                                               ; preds = %37, %11
  call void @llvm.lifetime.end.p0(i64 8, ptr %3) #7
  %39 = load i32, ptr %4, align 4
  switch i32 %39, label %41 [
    i32 0, label %40
    i32 1, label %40
  ]

40:                                               ; preds = %38, %38
  ret void

41:                                               ; preds = %38
  unreachable
}

; Function Attrs: nounwind uwtable
define hidden zeroext i1 @SDL_MousePositionInWindow(ptr noundef %0, float noundef %1, float noundef %2) #0 {
  %4 = alloca i1, align 1
  %5 = alloca ptr, align 8
  %6 = alloca float, align 4
  %7 = alloca float, align 4
  store ptr %0, ptr %5, align 8
  store float %1, ptr %6, align 4
  store float %2, ptr %7, align 4
  %8 = load ptr, ptr %5, align 8
  %9 = icmp ne ptr %8, null
  br i1 %9, label %11, label %10

10:                                               ; preds = %3
  store i1 false, ptr %4, align 1
  br label %43

11:                                               ; preds = %3
  %12 = load ptr, ptr %5, align 8
  %13 = icmp ne ptr %12, null
  br i1 %13, label %14, label %42

14:                                               ; preds = %11
  %15 = load ptr, ptr %5, align 8
  %16 = getelementptr inbounds nuw %struct.SDL_Window, ptr %15, i32 0, i32 15
  %17 = load i64, ptr %16, align 8
  %18 = and i64 %17, 16384
  %19 = icmp ne i64 %18, 0
  br i1 %19, label %42, label %20

20:                                               ; preds = %14
  %21 = load float, ptr %6, align 4
  %22 = fcmp olt float %21, 0.000000e+00
  br i1 %22, label %40, label %23

23:                                               ; preds = %20
  %24 = load float, ptr %7, align 4
  %25 = fcmp olt float %24, 0.000000e+00
  br i1 %25, label %40, label %26

26:                                               ; preds = %23
  %27 = load float, ptr %6, align 4
  %28 = load ptr, ptr %5, align 8
  %29 = getelementptr inbounds nuw %struct.SDL_Window, ptr %28, i32 0, i32 5
  %30 = load i32, ptr %29, align 8
  %31 = sitofp i32 %30 to float
  %32 = fcmp oge float %27, %31
  br i1 %32, label %40, label %33

33:                                               ; preds = %26
  %34 = load float, ptr %7, align 4
  %35 = load ptr, ptr %5, align 8
  %36 = getelementptr inbounds nuw %struct.SDL_Window, ptr %35, i32 0, i32 6
  %37 = load i32, ptr %36, align 4
  %38 = sitofp i32 %37 to float
  %39 = fcmp oge float %34, %38
  br i1 %39, label %40, label %41

40:                                               ; preds = %33, %26, %23, %20
  store i1 false, ptr %4, align 1
  br label %43

41:                                               ; preds = %33
  br label %42

42:                                               ; preds = %41, %14, %11
  store i1 true, ptr %4, align 1
  br label %43

43:                                               ; preds = %42, %40, %10
  %44 = load i1, ptr %4, align 1
  ret i1 %44
}

; Function Attrs: nounwind uwtable
define hidden ptr @SDL_GetMouse() #0 {
  ret ptr @SDL_mouse
}

; Function Attrs: nounwind uwtable
define internal zeroext i1 @SDL_UpdateMouseFocus(ptr noundef %0, float noundef %1, float noundef %2, i32 noundef %3, i1 noundef zeroext %4) #0 {
  %6 = alloca i1, align 1
  %7 = alloca ptr, align 8
  %8 = alloca float, align 4
  %9 = alloca float, align 4
  %10 = alloca i32, align 4
  %11 = alloca i8, align 1
  %12 = alloca ptr, align 8
  %13 = alloca i8, align 1
  %14 = alloca i32, align 4
  store ptr %0, ptr %7, align 8
  store float %1, ptr %8, align 4
  store float %2, ptr %9, align 4
  store i32 %3, ptr %10, align 4
  %15 = zext i1 %4 to i8
  store i8 %15, ptr %11, align 1
  call void @llvm.lifetime.start.p0(i64 8, ptr %12) #7
  %16 = call ptr @SDL_GetMouse()
  store ptr %16, ptr %12, align 8
  call void @llvm.lifetime.start.p0(i64 1, ptr %13) #7
  %17 = load ptr, ptr %7, align 8
  %18 = load float, ptr %8, align 4
  %19 = load float, ptr %9, align 4
  %20 = call zeroext i1 @SDL_MousePositionInWindow(ptr noundef %17, float noundef %18, float noundef %19)
  %21 = zext i1 %20 to i8
  store i8 %21, ptr %13, align 1
  %22 = load i8, ptr %13, align 1, !range !3, !noundef !4
  %23 = trunc i8 %22 to i1
  br i1 %23, label %39, label %24

24:                                               ; preds = %5
  %25 = load ptr, ptr %7, align 8
  %26 = load ptr, ptr %12, align 8
  %27 = getelementptr inbounds nuw %struct.SDL_Mouse, ptr %26, i32 0, i32 17
  %28 = load ptr, ptr %27, align 8
  %29 = icmp eq ptr %25, %28
  br i1 %29, label %30, label %38

30:                                               ; preds = %24
  %31 = load i8, ptr %11, align 1, !range !3, !noundef !4
  %32 = trunc i8 %31 to i1
  br i1 %32, label %33, label %37

33:                                               ; preds = %30
  %34 = load ptr, ptr %7, align 8
  %35 = load float, ptr %8, align 4
  %36 = load float, ptr %9, align 4
  call void @SDL_PrivateSendMouseMotion(i64 noundef 0, ptr noundef %34, i32 noundef 0, i1 noundef zeroext false, float noundef %35, float noundef %36)
  br label %37

37:                                               ; preds = %33, %30
  call void @SDL_SetMouseFocus(ptr noundef null)
  br label %38

38:                                               ; preds = %37, %24
  store i1 false, ptr %6, align 1
  store i32 1, ptr %14, align 4
  br label %55

39:                                               ; preds = %5
  %40 = load ptr, ptr %7, align 8
  %41 = load ptr, ptr %12, align 8
  %42 = getelementptr inbounds nuw %struct.SDL_Mouse, ptr %41, i32 0, i32 17
  %43 = load ptr, ptr %42, align 8
  %44 = icmp ne ptr %40, %43
  br i1 %44, label %45, label %54

45:                                               ; preds = %39
  %46 = load ptr, ptr %7, align 8
  call void @SDL_SetMouseFocus(ptr noundef %46)
  %47 = load i8, ptr %11, align 1, !range !3, !noundef !4
  %48 = trunc i8 %47 to i1
  br i1 %48, label %49, label %53

49:                                               ; preds = %45
  %50 = load ptr, ptr %7, align 8
  %51 = load float, ptr %8, align 4
  %52 = load float, ptr %9, align 4
  call void @SDL_PrivateSendMouseMotion(i64 noundef 0, ptr noundef %50, i32 noundef 0, i1 noundef zeroext false, float noundef %51, float noundef %52)
  br label %53

53:                                               ; preds = %49, %45
  br label %54

54:                                               ; preds = %53, %39
  store i1 true, ptr %6, align 1
  store i32 1, ptr %14, align 4
  br label %55

55:                                               ; preds = %54, %38
  call void @llvm.lifetime.end.p0(i64 1, ptr %13) #7
  call void @llvm.lifetime.end.p0(i64 8, ptr %12) #7
  %56 = load i1, ptr %6, align 1
  ret i1 %56
}