; Function Attrs: nounwind uwtable
define internal fastcc noundef zeroext i1 @SDL_UpdateMouseFocus(ptr noundef nonnull %0, float noundef %1, float noundef %2, i1 noundef zeroext %3) unnamed_addr #0 {
  %5 = getelementptr inbounds nuw i8, ptr %0, i64 72
  %6 = load i64, ptr %5, align 8
  %7 = and i64 %6, 16384
  %.not14.i = icmp eq i64 %7, 0
  br i1 %.not14.i, label %8, label %SDL_MousePositionInWindow.exit

8:                                                ; preds = %4
  %9 = fcmp olt float %1, 0.000000e+00
  %10 = fcmp olt float %2, 0.000000e+00
  %or.cond.i = or i1 %9, %10
  br i1 %or.cond.i, label %21, label %11

11:                                               ; preds = %8
  %12 = getelementptr inbounds nuw i8, ptr %0, i64 32
  %13 = load i32, ptr %12, align 8
  %14 = sitofp i32 %13 to float
  %15 = fcmp ult float %1, %14
  br i1 %15, label %16, label %21

16:                                               ; preds = %11
  %17 = getelementptr inbounds nuw i8, ptr %0, i64 36
  %18 = load i32, ptr %17, align 4
  %19 = sitofp i32 %18 to float
  %20 = fcmp ult float %2, %19
  br i1 %20, label %SDL_MousePositionInWindow.exit, label %21

21:                                               ; preds = %16, %11, %8
  %22 = load ptr, ptr getelementptr inbounds nuw (i8, ptr @SDL_mouse, i64 128), align 8
  %23 = icmp eq ptr %0, %22
  br i1 %23, label %24, label %SDL_SetMouseFocus.exit

24:                                               ; preds = %21
  br i1 %3, label %25, label %26

25:                                               ; preds = %24
  tail call fastcc void @SDL_PrivateSendMouseMotion(i64 noundef 0, ptr noundef nonnull %0, i32 noundef 0, i1 noundef zeroext false, float noundef %1, float noundef %2)
  %.pr = load ptr, ptr getelementptr inbounds nuw (i8, ptr @SDL_mouse, i64 128), align 8
  br label %26

26:                                               ; preds = %25, %24
  %27 = phi ptr [ %.pr, %25 ], [ %22, %24 ]
  %28 = icmp eq ptr %27, null
  br i1 %28, label %SDL_SetMouseFocus.exit, label %29

29:                                               ; preds = %26
  %30 = tail call zeroext i1 @SDL_SendWindowEvent(ptr noundef nonnull %27, i32 noundef 525, i32 noundef 0, i32 noundef 0) #13
  store ptr null, ptr getelementptr inbounds nuw (i8, ptr @SDL_mouse, i64 128), align 8
  store i8 0, ptr getelementptr inbounds nuw (i8, ptr @SDL_mouse, i64 184), align 8
  %31 = load ptr, ptr getelementptr inbounds nuw (i8, ptr @SDL_mouse, i64 16), align 8
  %.not12.i.i = icmp eq ptr %31, null
  br i1 %.not12.i.i, label %SDL_SetMouseFocus.exit, label %32

32:                                               ; preds = %29
  %.val.i13.i = load ptr, ptr getelementptr inbounds nuw (i8, ptr @SDL_mouse, i64 272), align 8
  %33 = tail call zeroext i1 %31(ptr noundef %.val.i13.i) #13
  br label %SDL_SetMouseFocus.exit

SDL_MousePositionInWindow.exit:                   ; preds = %16, %4
  %34 = load ptr, ptr getelementptr inbounds nuw (i8, ptr @SDL_mouse, i64 128), align 8
  %.not = icmp eq ptr %0, %34
  br i1 %.not, label %SDL_SetMouseFocus.exit, label %35

35:                                               ; preds = %SDL_MousePositionInWindow.exit
  %.not.i = icmp eq ptr %34, null
  br i1 %.not.i, label %38, label %36

36:                                               ; preds = %35
  %37 = tail call zeroext i1 @SDL_SendWindowEvent(ptr noundef nonnull %34, i32 noundef 525, i32 noundef 0, i32 noundef 0) #13
  br label %38

38:                                               ; preds = %36, %35
  store ptr %0, ptr getelementptr inbounds nuw (i8, ptr @SDL_mouse, i64 128), align 8
  store i8 0, ptr getelementptr inbounds nuw (i8, ptr @SDL_mouse, i64 184), align 8
  %39 = tail call zeroext i1 @SDL_SendWindowEvent(ptr noundef nonnull %0, i32 noundef 524, i32 noundef 0, i32 noundef 0) #13
  %.pr.i = load ptr, ptr getelementptr inbounds nuw (i8, ptr @SDL_mouse, i64 128), align 8
  %.not.i.i = icmp eq ptr %.pr.i, null
  %.val.i.i = load ptr, ptr getelementptr inbounds nuw (i8, ptr @SDL_mouse, i64 272), align 8
  %.val14.i.i = load ptr, ptr getelementptr inbounds nuw (i8, ptr @SDL_mouse, i64 280), align 8
  br i1 %.not.i.i, label %49, label %40

40:                                               ; preds = %38
  %41 = load i8, ptr getelementptr inbounds nuw (i8, ptr @SDL_mouse, i64 288), align 8, !range !3, !noundef !4
  %42 = trunc nuw i8 %41 to i1
  br i1 %42, label %43, label %48

43:                                               ; preds = %40
  %44 = load i8, ptr getelementptr inbounds nuw (i8, ptr @SDL_mouse, i64 185), align 1, !range !3, !noundef !4
  %45 = trunc nuw i8 %44 to i1
  %46 = load i8, ptr getelementptr inbounds nuw (i8, ptr @SDL_mouse, i64 187), align 1, !range !3
  %47 = trunc nuw i8 %46 to i1
  %or.cond.i.i = select i1 %45, i1 %47, i1 false
  br i1 %or.cond.i.i, label %48, label %49

48:                                               ; preds = %43, %40
  br label %49

49:                                               ; preds = %48, %43, %38
  %.1.i.i = phi ptr [ null, %48 ], [ %.val14.i.i, %43 ], [ %.val.i.i, %38 ]
  %50 = load ptr, ptr getelementptr inbounds nuw (i8, ptr @SDL_mouse, i64 16), align 8
  %.not12.i.i18 = icmp eq ptr %50, null
  br i1 %.not12.i.i18, label %SDL_SetMouseFocus.exit20, label %51

51:                                               ; preds = %49
  %52 = tail call zeroext i1 %50(ptr noundef %.1.i.i) #13
  br label %SDL_SetMouseFocus.exit20

SDL_SetMouseFocus.exit20:                         ; preds = %49, %51
  br i1 %3, label %53, label %SDL_SetMouseFocus.exit

53:                                               ; preds = %SDL_SetMouseFocus.exit20
  tail call fastcc void @SDL_PrivateSendMouseMotion(i64 noundef 0, ptr noundef nonnull %0, i32 noundef 0, i1 noundef zeroext false, float noundef %1, float noundef %2)
  br label %SDL_SetMouseFocus.exit

SDL_SetMouseFocus.exit:                           ; preds = %32, %29, %26, %SDL_MousePositionInWindow.exit, %53, %SDL_SetMouseFocus.exit20, %21
  %.0.i22 = phi i1 [ true, %SDL_MousePositionInWindow.exit ], [ true, %53 ], [ true, %SDL_SetMouseFocus.exit20 ], [ false, %21 ], [ false, %26 ], [ false, %29 ], [ false, %32 ]
  ret i1 %.0.i22
}